; Function Attrs: nounwind uwtable
define noalias nonnull ptr @l_Lean_DeclarationRange_toLspRange(ptr noundef readonly captures(none) %0) local_unnamed_addr #1 {
  %2 = getelementptr inbounds nuw i8, ptr %0, i64 8
  %3 = load ptr, ptr %2, align 8, !tbaa !14
  %4 = getelementptr inbounds nuw i8, ptr %0, i64 16
  %5 = load ptr, ptr %4, align 8, !tbaa !14
  %6 = getelementptr inbounds nuw i8, ptr %0, i64 24
  %7 = load ptr, ptr %6, align 8, !tbaa !14
  %8 = getelementptr inbounds nuw i8, ptr %0, i64 32
  %9 = load ptr, ptr %8, align 8, !tbaa !14
  %10 = getelementptr inbounds nuw i8, ptr %3, i64 8
  %11 = load ptr, ptr %10, align 8, !tbaa !14
  %12 = ptrtoint ptr %11 to i64
  %13 = and i64 %12, 1
  %.not = icmp eq i64 %13, 0
  br i1 %.not, label %.critedge.i25, label %14, !prof !11

14:                                               ; preds = %1
  %15 = icmp ult ptr %11, inttoptr (i64 2 to ptr)
  br i1 %15, label %lean_nat_sub.exit27, label %16

16:                                               ; preds = %14
  %17 = add i64 %12, -2
  %18 = inttoptr i64 %17 to ptr
  br label %lean_nat_sub.exit27

.critedge.i25:                                    ; preds = %1
  %19 = tail call ptr @lean_nat_big_sub(ptr noundef %11, ptr noundef nonnull inttoptr (i64 3 to ptr)) #4
  br label %lean_nat_sub.exit27

lean_nat_sub.exit27:                              ; preds = %14, %16, %.critedge.i25
  %.1.i26 = phi ptr [ %19, %.critedge.i25 ], [ %18, %16 ], [ inttoptr (i64 1 to ptr), %14 ]
  %20 = ptrtoint ptr %5 to i64
  %21 = and i64 %20, 1
  %.not34 = icmp eq i64 %21, 0
  br i1 %.not34, label %22, label %lean_inc.exit28

22:                                               ; preds = %lean_nat_sub.exit27
  %.val.i = load i32, ptr %5, align 4, !tbaa !4
  %23 = icmp sgt i32 %.val.i, 0
  br i1 %23, label %24, label %26, !prof !9

24:                                               ; preds = %22
  %25 = add nuw i32 %.val.i, 1
  store i32 %25, ptr %5, align 4, !tbaa !4
  br label %lean_inc.exit28

26:                                               ; preds = %22
  %.not.i = icmp eq i32 %.val.i, 0
  br i1 %.not.i, label %lean_inc.exit28, label %27

27:                                               ; preds = %26
  tail call void @lean_inc_ref_cold(ptr noundef nonnull %5) #4
  br label %lean_inc.exit28

lean_inc.exit28:                                  ; preds = %27, %26, %24, %lean_nat_sub.exit27
  tail call void @lean_inc_heartbeat() #4
  %28 = tail call noalias ptr @mi_malloc_small(i64 noundef 24) #4
  %29 = icmp eq ptr %28, null
  br i1 %29, label %30, label %lean_alloc_ctor.exit

30:                                               ; preds = %lean_inc.exit28
  tail call void @lean_internal_panic_out_of_memory() #5
  unreachable

lean_alloc_ctor.exit:                             ; preds = %lean_inc.exit28
  %31 = getelementptr inbounds nuw i8, ptr %28, i64 4
  store i32 1, ptr %28, align 4, !tbaa !4
  store i32 131096, ptr %31, align 4
  %32 = getelementptr inbounds nuw i8, ptr %28, i64 8
  store ptr %.1.i26, ptr %32, align 8, !tbaa !14
  %33 = getelementptr inbounds nuw i8, ptr %28, i64 16
  store ptr %5, ptr %33, align 8, !tbaa !14
  %34 = getelementptr inbounds nuw i8, ptr %7, i64 8
  %35 = load ptr, ptr %34, align 8, !tbaa !14
  %36 = ptrtoint ptr %35 to i64
  %37 = and i64 %36, 1
  %.not35 = icmp eq i64 %37, 0
  br i1 %.not35, label %.critedge.i, label %38, !prof !11

38:                                               ; preds = %lean_alloc_ctor.exit
  %39 = icmp ult ptr %35, inttoptr (i64 2 to ptr)
  br i1 %39, label %lean_nat_sub.exit, label %40

40:                                               ; preds = %38
  %41 = add i64 %36, -2
  %42 = inttoptr i64 %41 to ptr
  br label %lean_nat_sub.exit

.critedge.i:                                      ; preds = %lean_alloc_ctor.exit
  %43 = tail call ptr @lean_nat_big_sub(ptr noundef %35, ptr noundef nonnull inttoptr (i64 3 to ptr)) #4
  br label %lean_nat_sub.exit

lean_nat_sub.exit:                                ; preds = %38, %40, %.critedge.i
  %.1.i = phi ptr [ %43, %.critedge.i ], [ %42, %40 ], [ inttoptr (i64 1 to ptr), %38 ]
  %44 = ptrtoint ptr %9 to i64
  %45 = and i64 %44, 1
  %.not36 = icmp eq i64 %45, 0
  br i1 %.not36, label %46, label %lean_inc.exit

46:                                               ; preds = %lean_nat_sub.exit
  %.val.i29 = load i32, ptr %9, align 4, !tbaa !4
  %47 = icmp sgt i32 %.val.i29, 0
  br i1 %47, label %48, label %50, !prof !9

48:                                               ; preds = %46
  %49 = add nuw i32 %.val.i29, 1
  store i32 %49, ptr %9, align 4, !tbaa !4
  br label %lean_inc.exit

50:                                               ; preds = %46
  %.not.i30 = icmp eq i32 %.val.i29, 0
  br i1 %.not.i30, label %lean_inc.exit, label %51

51:                                               ; preds = %50
  tail call void @lean_inc_ref_cold(ptr noundef nonnull %9) #4
  br label %lean_inc.exit

lean_inc.exit:                                    ; preds = %51, %50, %48, %lean_nat_sub.exit
  tail call void @lean_inc_heartbeat() #4
  %52 = tail call noalias ptr @mi_malloc_small(i64 noundef 24) #4
  %53 = icmp eq ptr %52, null
  br i1 %53, label %54, label %lean_alloc_ctor.exit32

54:                                               ; preds = %lean_inc.exit
  tail call void @lean_internal_panic_out_of_memory() #5
  unreachable

lean_alloc_ctor.exit32:                           ; preds = %lean_inc.exit
  %55 = getelementptr inbounds nuw i8, ptr %52, i64 4
  store i32 1, ptr %52, align 4, !tbaa !4
  store i32 131096, ptr %55, align 4
  %56 = getelementptr inbounds nuw i8, ptr %52, i64 8
  store ptr %.1.i, ptr %56, align 8, !tbaa !14
  %57 = getelementptr inbounds nuw i8, ptr %52, i64 16
  store ptr %9, ptr %57, align 8, !tbaa !14
  tail call void @lean_inc_heartbeat() #4
  %58 = tail call noalias ptr @mi_malloc_small(i64 noundef 24) #4
  %59 = icmp eq ptr %58, null
  br i1 %59, label %60, label %lean_alloc_ctor.exit33

60:                                               ; preds = %lean_alloc_ctor.exit32
  tail call void @lean_internal_panic_out_of_memory() #5
  unreachable

lean_alloc_ctor.exit33:                           ; preds = %lean_alloc_ctor.exit32
  %61 = getelementptr inbounds nuw i8, ptr %58, i64 4
  store i32 1, ptr %58, align 4, !tbaa !4
  store i32 131096, ptr %61, align 4
  %62 = getelementptr inbounds nuw i8, ptr %58, i64 8
  store ptr %28, ptr %62, align 8, !tbaa !14
  %63 = getelementptr inbounds nuw i8, ptr %58, i64 16
  store ptr %52, ptr %63, align 8, !tbaa !14
  ret ptr %58
}